target datalayout = "e-m:e-p270:32:32-p271:32:32-p272:64:64-i64:64-i128:128-f80:128-n8:16:32:64-S128"
target triple = "x86_64-pc-linux-gnu"

%class.AbsSeq = type { ptr, i32, double, double, double, double, double }

@.str.10 = private unnamed_addr constant [51 x i8] c"\09 _num = %d, _sum = %7.3f, _sum_of_squares = %7.3f\00", align 1
@.str.11 = private unnamed_addr constant [52 x i8] c"\09 _davg = %7.3f, _dvariance = %7.3f, _alpha = %7.3f\00", align 1

; Function Attrs: mustprogress nounwind uwtable
define hidden void @_ZN6AbsSeq7dump_onEP12outputStream(ptr noundef nonnull align 8 dereferenceable(56) %0, ptr noundef %1) unnamed_addr #1 align 2 {
  %3 = alloca ptr, align 8
  %4 = alloca ptr, align 8
  store ptr %0, ptr %3, align 8
  store ptr %1, ptr %4, align 8
  %5 = load ptr, ptr %3, align 8
  %6 = load ptr, ptr %4, align 8
  %7 = getelementptr inbounds %class.AbsSeq, ptr %5, i32 0, i32 1
  %8 = load i32, ptr %7, align 8
  %9 = getelementptr inbounds %class.AbsSeq, ptr %5, i32 0, i32 2
  %10 = load double, ptr %9, align 8
  %11 = getelementptr inbounds %class.AbsSeq, ptr %5, i32 0, i32 3
  %12 = load double, ptr %11, align 8
  call void (ptr, ptr, ...) @_ZN12outputStream8print_crEPKcz(ptr noundef nonnull align 8 dereferenceable(56) %6, ptr noundef @.str.10, i32 noundef %8, double noundef %10, double noundef %12)
  %13 = load ptr, ptr %4, align 8
  %14 = getelementptr inbounds %class.AbsSeq, ptr %5, i32 0, i32 4
  %15 = load double, ptr %14, align 8
  %16 = getelementptr inbounds %class.AbsSeq, ptr %5, i32 0, i32 5
  %17 = load double, ptr %16, align 8
  %18 = getelementptr inbounds %class.AbsSeq, ptr %5, i32 0, i32 6
  %19 = load double, ptr %18, align 8
  call void (ptr, ptr, ...) @_ZN12outputStream8print_crEPKcz(ptr noundef nonnull align 8 dereferenceable(56) %13, ptr noundef @.str.11, double noundef %15, double noundef %17, double noundef %19)
  ret void
}